target datalayout = "e-m:e-p270:32:32-p271:32:32-p272:64:64-i64:64-i128:128-f80:128-n8:16:32:64-S128"
target triple = "x86_64-pc-linux-gnu"

@hf_x11_event_sequencenumber = internal global i32 0, align 4
@hf_x11_unused = internal global i32 0, align 4
@hf_x11_xkb_AccessXNotify_xkbType = internal global i32 0, align 4
@hf_x11_xkb_AccessXNotify_time = internal global i32 0, align 4
@hf_x11_xkb_AccessXNotify_deviceID = internal global i32 0, align 4
@hf_x11_xkb_AccessXNotify_keycode = internal global i32 0, align 4
@hf_x11_xkb_AccessXNotify_detailt = internal global i32 0, align 4
@hf_x11_xkb_AccessXNotify_slowKeysDelay = internal global i32 0, align 4
@hf_x11_xkb_AccessXNotify_debounceDelay = internal global i32 0, align 4
@ett_x11_rectangle = internal global i32 0, align 4

; Function Attrs: null_pointer_is_valid sspstrong uwtable
define internal void @xkbAccessXNotify(ptr noundef %0, ptr noundef %1, ptr noundef %2, i32 noundef %3) #1 {
  %5 = alloca ptr, align 8
  %6 = alloca ptr, align 8
  %7 = alloca ptr, align 8
  %8 = alloca i32, align 4
  store ptr %0, ptr %5, align 8
  store ptr %1, ptr %6, align 8
  store ptr %2, ptr %7, align 8
  store i32 %3, ptr %8, align 4
  %9 = load ptr, ptr %7, align 8
  %10 = load i32, ptr @hf_x11_xkb_AccessXNotify_xkbType, align 4
  %11 = load ptr, ptr %5, align 8
  %12 = load ptr, ptr %6, align 8
  %13 = load i32, ptr %12, align 4
  %14 = load i32, ptr %8, align 4
  %15 = call ptr @proto_tree_add_item(ptr noundef %9, i32 noundef %10, ptr noundef %11, i32 noundef %13, i32 noundef 1, i32 noundef %14)
  %16 = load ptr, ptr %6, align 8
  %17 = load i32, ptr %16, align 4
  %18 = add i32 %17, 1
  store i32 %18, ptr %16, align 4
  %19 = load ptr, ptr %5, align 8
  %20 = load ptr, ptr %6, align 8
  %21 = load ptr, ptr %7, align 8
  %22 = load i32, ptr @hf_x11_event_sequencenumber, align 4
  %23 = load i32, ptr %8, align 4
  %24 = call i32 @field16(ptr noundef %19, ptr noundef %20, ptr noundef %21, i32 noundef %22, i32 noundef %23)
  %25 = load ptr, ptr %7, align 8
  %26 = load i32, ptr @hf_x11_xkb_AccessXNotify_time, align 4
  %27 = load ptr, ptr %5, align 8
  %28 = load ptr, ptr %6, align 8
  %29 = load i32, ptr %28, align 4
  %30 = load i32, ptr %8, align 4
  %31 = call ptr @proto_tree_add_item(ptr noundef %25, i32 noundef %26, ptr noundef %27, i32 noundef %29, i32 noundef 4, i32 noundef %30)
  %32 = load ptr, ptr %6, align 8
  %33 = load i32, ptr %32, align 4
  %34 = add i32 %33, 4
  store i32 %34, ptr %32, align 4
  %35 = load ptr, ptr %7, align 8
  %36 = load i32, ptr @hf_x11_xkb_AccessXNotify_deviceID, align 4
  %37 = load ptr, ptr %5, align 8
  %38 = load ptr, ptr %6, align 8
  %39 = load i32, ptr %38, align 4
  %40 = load i32, ptr %8, align 4
  %41 = call ptr @proto_tree_add_item(ptr noundef %35, i32 noundef %36, ptr noundef %37, i32 noundef %39, i32 noundef 1, i32 noundef %40)
  %42 = load ptr, ptr %6, align 8
  %43 = load i32, ptr %42, align 4
  %44 = add i32 %43, 1
  store i32 %44, ptr %42, align 4
  %45 = load ptr, ptr %7, align 8
  %46 = load i32, ptr @hf_x11_xkb_AccessXNotify_keycode, align 4
  %47 = load ptr, ptr %5, align 8
  %48 = load ptr, ptr %6, align 8
  %49 = load i32, ptr %48, align 4
  %50 = load i32, ptr %8, align 4
  %51 = call ptr @proto_tree_add_item(ptr noundef %45, i32 noundef %46, ptr noundef %47, i32 noundef %49, i32 noundef 1, i32 noundef %50)
  %52 = load ptr, ptr %6, align 8
  %53 = load i32, ptr %52, align 4
  %54 = add i32 %53, 1
  store i32 %54, ptr %52, align 4
  %55 = load ptr, ptr %7, align 8
  %56 = load ptr, ptr %5, align 8
  %57 = load ptr, ptr %6, align 8
  %58 = load i32, ptr %57, align 4
  %59 = load i32, ptr @hf_x11_xkb_AccessXNotify_detailt, align 4
  %60 = load i32, ptr @ett_x11_rectangle, align 4
  %61 = load i32, ptr %8, align 4
  %62 = call ptr @proto_tree_add_bitmask(ptr noundef %55, ptr noundef %56, i32 noundef %58, i32 noundef %59, i32 noundef %60, ptr noundef @xkbAccessXNotify.detailt_bits, i32 noundef %61)
  %63 = load ptr, ptr %6, align 8
  %64 = load i32, ptr %63, align 4
  %65 = add i32 %64, 2
  store i32 %65, ptr %63, align 4
  %66 = load ptr, ptr %7, align 8
  %67 = load i32, ptr @hf_x11_xkb_AccessXNotify_slowKeysDelay, align 4
  %68 = load ptr, ptr %5, align 8
  %69 = load ptr, ptr %6, align 8
  %70 = load i32, ptr %69, align 4
  %71 = load i32, ptr %8, align 4
  %72 = call ptr @proto_tree_add_item(ptr noundef %66, i32 noundef %67, ptr noundef %68, i32 noundef %70, i32 noundef 2, i32 noundef %71)
  %73 = load ptr, ptr %6, align 8
  %74 = load i32, ptr %73, align 4
  %75 = add i32 %74, 2
  store i32 %75, ptr %73, align 4
  %76 = load ptr, ptr %7, align 8
  %77 = load i32, ptr @hf_x11_xkb_AccessXNotify_debounceDelay, align 4
  %78 = load ptr, ptr %5, align 8
  %79 = load ptr, ptr %6, align 8
  %80 = load i32, ptr %79, align 4
  %81 = load i32, ptr %8, align 4
  %82 = call ptr @proto_tree_add_item(ptr noundef %76, i32 noundef %77, ptr noundef %78, i32 noundef %80, i32 noundef 2, i32 noundef %81)
  %83 = load ptr, ptr %6, align 8
  %84 = load i32, ptr %83, align 4
  %85 = add i32 %84, 2
  store i32 %85, ptr %83, align 4
  %86 = load ptr, ptr %7, align 8
  %87 = load i32, ptr @hf_x11_unused, align 4
  %88 = load ptr, ptr %5, align 8
  %89 = load ptr, ptr %6, align 8
  %90 = load i32, ptr %89, align 4
  %91 = call ptr @proto_tree_add_item(ptr noundef %86, i32 noundef %87, ptr noundef %88, i32 noundef %90, i32 noundef 16, i32 noundef 0)
  %92 = load ptr, ptr %6, align 8
  %93 = load i32, ptr %92, align 4
  %94 = add i32 %93, 16
  store i32 %94, ptr %92, align 4
  ret void
}