; Function Attrs: null_pointer_is_valid sspstrong uwtable
define internal void @xkbAccessXNotify(ptr noundef %0, ptr noundef captures(none) %1, ptr noundef %2, i32 noundef %3) #1 {
  %5 = load i32, ptr @hf_x11_xkb_AccessXNotify_xkbType, align 4
  %6 = load i32, ptr %1, align 4
  %7 = tail call ptr @proto_tree_add_item(ptr noundef %2, i32 noundef %5, ptr noundef %0, i32 noundef %6, i32 noundef 1, i32 noundef %3)
  %8 = load i32, ptr %1, align 4
  %9 = add i32 %8, 1
  store i32 %9, ptr %1, align 4
  %10 = load i32, ptr @hf_x11_event_sequencenumber, align 4
  %11 = tail call fastcc i32 @field16(ptr noundef %0, ptr noundef %1, ptr noundef %2, i32 noundef %10, i32 noundef %3)
  %12 = load i32, ptr @hf_x11_xkb_AccessXNotify_time, align 4
  %13 = load i32, ptr %1, align 4
  %14 = tail call ptr @proto_tree_add_item(ptr noundef %2, i32 noundef %12, ptr noundef %0, i32 noundef %13, i32 noundef 4, i32 noundef %3)
  %15 = load i32, ptr %1, align 4
  %16 = add i32 %15, 4
  store i32 %16, ptr %1, align 4
  %17 = load i32, ptr @hf_x11_xkb_AccessXNotify_deviceID, align 4
  %18 = tail call ptr @proto_tree_add_item(ptr noundef %2, i32 noundef %17, ptr noundef %0, i32 noundef %16, i32 noundef 1, i32 noundef %3)
  %19 = load i32, ptr %1, align 4
  %20 = add i32 %19, 1
  store i32 %20, ptr %1, align 4
  %21 = load i32, ptr @hf_x11_xkb_AccessXNotify_keycode, align 4
  %22 = tail call ptr @proto_tree_add_item(ptr noundef %2, i32 noundef %21, ptr noundef %0, i32 noundef %20, i32 noundef 1, i32 noundef %3)
  %23 = load i32, ptr %1, align 4
  %24 = add i32 %23, 1
  store i32 %24, ptr %1, align 4
  %25 = load i32, ptr @hf_x11_xkb_AccessXNotify_detailt, align 4
  %26 = load i32, ptr @ett_x11_rectangle, align 4
  %27 = tail call ptr @proto_tree_add_bitmask(ptr noundef %2, ptr noundef %0, i32 noundef %24, i32 noundef %25, i32 noundef %26, ptr noundef nonnull @xkbAccessXNotify.detailt_bits, i32 noundef %3)
  %28 = load i32, ptr %1, align 4
  %29 = add i32 %28, 2
  store i32 %29, ptr %1, align 4
  %30 = load i32, ptr @hf_x11_xkb_AccessXNotify_slowKeysDelay, align 4
  %31 = tail call ptr @proto_tree_add_item(ptr noundef %2, i32 noundef %30, ptr noundef %0, i32 noundef %29, i32 noundef 2, i32 noundef %3)
  %32 = load i32, ptr %1, align 4
  %33 = add i32 %32, 2
  store i32 %33, ptr %1, align 4
  %34 = load i32, ptr @hf_x11_xkb_AccessXNotify_debounceDelay, align 4
  %35 = tail call ptr @proto_tree_add_item(ptr noundef %2, i32 noundef %34, ptr noundef %0, i32 noundef %33, i32 noundef 2, i32 noundef %3)
  %36 = load i32, ptr %1, align 4
  %37 = add i32 %36, 2
  store i32 %37, ptr %1, align 4
  %38 = load i32, ptr @hf_x11_unused, align 4
  %39 = tail call ptr @proto_tree_add_item(ptr noundef %2, i32 noundef %38, ptr noundef %0, i32 noundef %37, i32 noundef 16, i32 noundef 0)
  %40 = load i32, ptr %1, align 4
  %41 = add i32 %40, 16
  store i32 %41, ptr %1, align 4
  ret void
}